; Function Attrs: nounwind uwtable
define hidden i32 @psa_mac_update(ptr noundef %0, ptr noundef readonly captures(none) %1, i64 noundef %2) local_unnamed_addr #7 {
  %4 = load i32, ptr %0, align 8, !tbaa !55
  %5 = icmp eq i32 %4, 0
  br i1 %5, label %22, label %6

6:                                                ; preds = %3
  %7 = icmp eq i64 %2, 0
  br i1 %7, label %22, label %8

8:                                                ; preds = %6
  %9 = tail call noalias ptr @calloc(i64 noundef %2, i64 noundef 1) #21
  %10 = icmp eq ptr %9, null
  br i1 %10, label %psa_crypto_local_input_alloc.exit, label %11

11:                                               ; preds = %8
  tail call void @llvm.memcpy.p0.p0.i64(ptr noundef nonnull align 1 dereferenceable(1) %9, ptr noundef nonnull readonly align 1 dereferenceable(1) %1, i64 range(i64 1, 0) %2, i1 false)
  %cond.i = icmp eq i32 %4, 1
  br i1 %cond.i, label %psa_driver_wrapper_mac_update.exit, label %psa_driver_wrapper_mac_update.exit.thread

psa_driver_wrapper_mac_update.exit:               ; preds = %11
  %12 = getelementptr inbounds nuw i8, ptr %0, i64 8
  %13 = tail call i32 @mbedtls_psa_mac_update(ptr noundef nonnull %12, ptr noundef nonnull %9, i64 noundef range(i64 1, 0) %2) #22
  %.not17 = icmp eq i32 %13, 0
  br i1 %.not17, label %psa_crypto_local_input_alloc.exit, label %psa_driver_wrapper_mac_update.exit.psa_driver_wrapper_mac_update.exit.thread_crit_edge

psa_driver_wrapper_mac_update.exit.psa_driver_wrapper_mac_update.exit.thread_crit_edge: ; preds = %psa_driver_wrapper_mac_update.exit
  %.pre = load i32, ptr %0, align 8, !tbaa !55
  br label %psa_driver_wrapper_mac_update.exit.thread

psa_driver_wrapper_mac_update.exit.thread:        ; preds = %psa_driver_wrapper_mac_update.exit.psa_driver_wrapper_mac_update.exit.thread_crit_edge, %11
  %14 = phi i32 [ %.pre, %psa_driver_wrapper_mac_update.exit.psa_driver_wrapper_mac_update.exit.thread_crit_edge ], [ %4, %11 ]
  %.0.i1829 = phi i32 [ %13, %psa_driver_wrapper_mac_update.exit.psa_driver_wrapper_mac_update.exit.thread_crit_edge ], [ -135, %11 ]
  switch i32 %14, label %psa_driver_wrapper_mac_abort.exit.i [
    i32 0, label %psa_crypto_local_input_alloc.exit
    i32 1, label %15
  ]

15:                                               ; preds = %psa_driver_wrapper_mac_update.exit.thread
  %16 = getelementptr inbounds nuw i8, ptr %0, i64 8
  %17 = tail call i32 @mbedtls_psa_mac_abort(ptr noundef nonnull %16) #22
  br label %psa_driver_wrapper_mac_abort.exit.i

psa_driver_wrapper_mac_abort.exit.i:              ; preds = %15, %psa_driver_wrapper_mac_update.exit.thread
  %18 = getelementptr inbounds nuw i8, ptr %0, i64 4
  store i8 0, ptr %18, align 4, !tbaa !57
  %19 = getelementptr inbounds nuw i8, ptr %0, i64 5
  %20 = load i8, ptr %19, align 1
  %21 = and i8 %20, -2
  store i8 %21, ptr %19, align 1
  store i32 0, ptr %0, align 8, !tbaa !55
  br label %psa_crypto_local_input_alloc.exit

psa_crypto_local_input_alloc.exit:                ; preds = %psa_driver_wrapper_mac_abort.exit.i, %psa_driver_wrapper_mac_update.exit.thread, %8, %psa_driver_wrapper_mac_update.exit
  %.0 = phi i32 [ 0, %psa_driver_wrapper_mac_update.exit ], [ -141, %8 ], [ %.0.i1829, %psa_driver_wrapper_mac_update.exit.thread ], [ %.0.i1829, %psa_driver_wrapper_mac_abort.exit.i ]
  tail call void @free(ptr noundef %9) #22
  br label %22

22:                                               ; preds = %6, %3, %psa_crypto_local_input_alloc.exit
  %.013 = phi i32 [ %.0, %psa_crypto_local_input_alloc.exit ], [ -137, %3 ], [ 0, %6 ]
  ret i32 %.013
}